	.file	"Main.c"
	.text
.Ltext0:
	.comm	Glob_x,4,4
	.comm	Glob_y,4,4
	.comm	ata0_blk_dev,20,4
	.comm	ata1_blk_dev,20,4
	.local	filesys
	.comm	filesys,44,32
	.comm	inode_tbl,16384,32
	.comm	ata,56,32
	.globl	VERSION
	.section	.rodata
.LC0:
	.string	"0.1.07"
	.section	.data.rel.local,"aw",@progbits
	.align 4
	.type	VERSION, @object
	.size	VERSION, 4
VERSION:
	.long	.LC0
	.globl	AUTHOR
	.section	.rodata
.LC1:
	.string	"OSLAB"
	.section	.data.rel.local
	.align 4
	.type	AUTHOR, @object
	.size	AUTHOR, 4
AUTHOR:
	.long	.LC1
	.globl	MODIFIER
	.section	.rodata
.LC2:
	.string	"You"
	.section	.data.rel.local
	.align 4
	.type	MODIFIER, @object
	.size	MODIFIER, 4
MODIFIER:
	.long	.LC2
	.text
	.globl	ssuos_main
	.type	ssuos_main, @function
ssuos_main:
.LFB3:
	.file 1 "arch/Main.c"
	.loc 1 29 0
	.cfi_startproc
	pushl	%ebp
	.cfi_def_cfa_offset 8
	.cfi_offset 5, -8
	movl	%esp, %ebp
	.cfi_def_cfa_register 5
	pushl	%ebx
	subl	$4, %esp
	.cfi_offset 3, -12
	call	__x86.get_pc_thunk.bx
	addl	$_GLOBAL_OFFSET_TABLE_, %ebx
	.loc 1 30 0
	call	main_init
	.loc 1 32 0
	subl	$12, %esp
	pushl	$0
	call	idle@PLT
	addl	$16, %esp
	.loc 1 34 0
	nop
	.loc 1 35 0
	movl	-4(%ebp), %ebx
	leave
	.cfi_restore 5
	.cfi_restore 3
	.cfi_def_cfa 4, 4
	ret
	.cfi_endproc
.LFE3:
	.size	ssuos_main, .-ssuos_main
	.section	.rodata
.LC3:
	.string	"Memory Detecting\n"
.LC4:
	.string	"%s"
.LC5:
	.string	"-Memory size = %u Kbytes\n"
.LC6:
	.string	"PIT Intialization\n"
.LC7:
	.string	"System call Intialization\n"
.LC8:
	.string	"Interrupt Initialization\n"
.LC9:
	.string	"%sPalloc Initialization\n"
.LC10:
	.string	"Paging Initialization\n"
.LC11:
	.string	"Process Intialization\n"
.LC12:
	.string	"ATA device Intialization\n"
	.align 4
.LC13:
	.string	"========== initialization complete ==========\n\n"
	.text
	.globl	main_init
	.type	main_init, @function
main_init:
.LFB4:
	.loc 1 38 0
	.cfi_startproc
	pushl	%ebp
	.cfi_def_cfa_offset 8
	.cfi_offset 5, -8
	movl	%esp, %ebp
	.cfi_def_cfa_register 5
	pushl	%ebx
	subl	$4, %esp
	.cfi_offset 3, -12
	call	__x86.get_pc_thunk.bx
	addl	$_GLOBAL_OFFSET_TABLE_, %ebx
	.loc 1 39 0
	call	intr_disable@PLT
	.loc 1 42 0
	call	init_console@PLT
	.loc 1 44 0
	call	print_contributors
	.loc 1 46 0
	call	detect_mem@PLT
	.loc 1 47 0
	subl	$8, %esp
	leal	.LC3@GOTOFF(%ebx), %eax
	pushl	%eax
	leal	.LC4@GOTOFF(%ebx), %eax
	pushl	%eax
	call	printk@PLT
	addl	$16, %esp
	.loc 1 48 0
	call	mem_size@PLT
	shrl	$10, %eax
	subl	$8, %esp
	pushl	%eax
	leal	.LC5@GOTOFF(%ebx), %eax
	pushl	%eax
	call	printk@PLT
	addl	$16, %esp
	.loc 1 50 0
	call	init_pit@PLT
	.loc 1 51 0
	subl	$8, %esp
	leal	.LC6@GOTOFF(%ebx), %eax
	pushl	%eax
	leal	.LC4@GOTOFF(%ebx), %eax
	pushl	%eax
	call	printk@PLT
	addl	$16, %esp
	.loc 1 53 0
	call	init_syscall@PLT
	.loc 1 54 0
	subl	$8, %esp
	leal	.LC7@GOTOFF(%ebx), %eax
	pushl	%eax
	leal	.LC4@GOTOFF(%ebx), %eax
	pushl	%eax
	call	printk@PLT
	addl	$16, %esp
	.loc 1 56 0
	call	init_intr@PLT
	.loc 1 57 0
	subl	$8, %esp
	leal	.LC8@GOTOFF(%ebx), %eax
	pushl	%eax
	leal	.LC4@GOTOFF(%ebx), %eax
	pushl	%eax
	call	printk@PLT
	addl	$16, %esp
	.loc 1 59 0
	call	init_kbd@PLT
	.loc 1 61 0
	call	init_palloc@PLT
	.loc 1 62 0
	subl	$12, %esp
	leal	.LC9@GOTOFF(%ebx), %eax
	pushl	%eax
	call	printk@PLT
	addl	$16, %esp
	.loc 1 64 0
	call	init_paging@PLT
	.loc 1 65 0
	subl	$8, %esp
	leal	.LC10@GOTOFF(%ebx), %eax
	pushl	%eax
	leal	.LC4@GOTOFF(%ebx), %eax
	pushl	%eax
	call	printk@PLT
	addl	$16, %esp
	.loc 1 67 0
	call	init_proc@PLT
	.loc 1 68 0
	subl	$8, %esp
	leal	.LC11@GOTOFF(%ebx), %eax
	pushl	%eax
	leal	.LC4@GOTOFF(%ebx), %eax
	pushl	%eax
	call	printk@PLT
	addl	$16, %esp
	.loc 1 70 0
	call	intr_enable@PLT
	.loc 1 72 0
	call	init_ata@PLT
	.loc 1 73 0
	subl	$8, %esp
	leal	.LC12@GOTOFF(%ebx), %eax
	pushl	%eax
	leal	.LC4@GOTOFF(%ebx), %eax
	pushl	%eax
	call	printk@PLT
	addl	$16, %esp
	.loc 1 75 0
	call	init_filesystem@PLT
	.loc 1 77 0
	subl	$12, %esp
	leal	.LC13@GOTOFF(%ebx), %eax
	pushl	%eax
	call	printk@PLT
	addl	$16, %esp
	.loc 1 81 0
	call	refreshScreen@PLT
	.loc 1 83 0
	nop
	movl	-4(%ebp), %ebx
	leave
	.cfi_restore 5
	.cfi_restore 3
	.cfi_def_cfa 4, 4
	ret
	.cfi_endproc
.LFE4:
	.size	main_init, .-main_init
	.section	.rodata
.LC14:
	.string	"SSUOS main start!!!!\n"
	.align 4
.LC15:
	.string	"          ______    ______   __    __         ______    ______  \n"
	.align 4
.LC16:
	.string	"         /      \\  /      \\ /  |  /  |       /      \\  /      \\ \n"
	.align 4
.LC17:
	.string	"        /$$$$$$  |/$$$$$$  |$$ |  $$ |      /$$$$$$  |/$$$$$$  |\n"
	.align 4
.LC18:
	.string	"        $$ \\__$$/ $$ \\__$$/ $$ |  $$ |      $$ |  $$ |$$ \\__$$/ \n"
	.align 4
.LC19:
	.string	"        $$      \\ $$      \\ $$ |  $$ |      $$ |  $$ |$$      \\ \n"
	.align 4
.LC20:
	.string	"         $$$$$$  | $$$$$$  |$$ |  $$ |      $$ |  $$ | $$$$$$  |\n"
	.align 4
.LC21:
	.string	"        /  \\__$$ |/  \\__$$ |$$ \\__$$ |      $$ \\__$$ |/  \\__$$ |\n"
	.align 4
.LC22:
	.string	"        $$    $$/ $$    $$/ $$    $$/       $$    $$/ $$    $$/ \n"
	.align 4
.LC23:
	.string	"         $$$$$$/   $$$$$$/   $$$$$$/         $$$$$$/   $$$$$$/  \n"
.LC24:
	.string	"\n"
	.align 4
.LC25:
	.string	"****************Made by OSLAB in SoongSil University*********************\n"
	.align 4
.LC26:
	.string	"contributors : Yunkyu Lee  , Minwoo Jang  , Sanghun Choi , Eunseok Choi\n"
	.align 4
.LC27:
	.string	"               Hyunho Ji   , Giwook Kang  , Kisu Kim     , Seonguk Lee \n"
	.align 4
.LC28:
	.string	"               Gibeom Byeon, Jeonghwan Lee, Kyoungmin Kim, Myungjoon Shon\n"
	.align 4
.LC29:
	.string	"               Hansol Lee  , Jinwoo Lee   , Mhanwoo Heo, Yongmin Kim, Jeongwoo Choi\n"
	.align 4
.LC30:
	.string	"************************  Professor. Jiman Hong  ************************\n"
	.align 4
.LC31:
	.string	"                                                                  \n"
	.text
	.globl	print_contributors
	.type	print_contributors, @function
print_contributors:
.LFB5:
	.loc 1 86 0
	.cfi_startproc
	pushl	%ebp
	.cfi_def_cfa_offset 8
	.cfi_offset 5, -8
	movl	%esp, %ebp
	.cfi_def_cfa_register 5
	pushl	%ebx
	subl	$4, %esp
	.cfi_offset 3, -12
	call	__x86.get_pc_thunk.bx
	addl	$_GLOBAL_OFFSET_TABLE_, %ebx
	.loc 1 87 0
	subl	$8, %esp
	leal	.LC14@GOTOFF(%ebx), %eax
	pushl	%eax
	leal	.LC4@GOTOFF(%ebx), %eax
	pushl	%eax
	call	printk@PLT
	addl	$16, %esp
	.loc 1 88 0
	subl	$12, %esp
	leal	.LC15@GOTOFF(%ebx), %eax
	pushl	%eax
	call	printk@PLT
	addl	$16, %esp
	.loc 1 89 0
	subl	$12, %esp
	leal	.LC16@GOTOFF(%ebx), %eax
	pushl	%eax
	call	printk@PLT
	addl	$16, %esp
	.loc 1 90 0
	subl	$12, %esp
	leal	.LC17@GOTOFF(%ebx), %eax
	pushl	%eax
	call	printk@PLT
	addl	$16, %esp
	.loc 1 91 0
	subl	$12, %esp
	leal	.LC18@GOTOFF(%ebx), %eax
	pushl	%eax
	call	printk@PLT
	addl	$16, %esp
	.loc 1 92 0
	subl	$12, %esp
	leal	.LC19@GOTOFF(%ebx), %eax
	pushl	%eax
	call	printk@PLT
	addl	$16, %esp
	.loc 1 93 0
	subl	$12, %esp
	leal	.LC20@GOTOFF(%ebx), %eax
	pushl	%eax
	call	printk@PLT
	addl	$16, %esp
	.loc 1 94 0
	subl	$12, %esp
	leal	.LC21@GOTOFF(%ebx), %eax
	pushl	%eax
	call	printk@PLT
	addl	$16, %esp
	.loc 1 95 0
	subl	$12, %esp
	leal	.LC22@GOTOFF(%ebx), %eax
	pushl	%eax
	call	printk@PLT
	addl	$16, %esp
	.loc 1 96 0
	subl	$12, %esp
	leal	.LC23@GOTOFF(%ebx), %eax
	pushl	%eax
	call	printk@PLT
	addl	$16, %esp
	.loc 1 97 0
	subl	$12, %esp
	leal	.LC24@GOTOFF(%ebx), %eax
	pushl	%eax
	call	printk@PLT
	addl	$16, %esp
	.loc 1 98 0
	subl	$12, %esp
	leal	.LC25@GOTOFF(%ebx), %eax
	pushl	%eax
	call	printk@PLT
	addl	$16, %esp
	.loc 1 99 0
	subl	$12, %esp
	leal	.LC24@GOTOFF(%ebx), %eax
	pushl	%eax
	call	printk@PLT
	addl	$16, %esp
	.loc 1 100 0
	subl	$12, %esp
	leal	.LC26@GOTOFF(%ebx), %eax
	pushl	%eax
	call	printk@PLT
	addl	$16, %esp
	.loc 1 101 0
	subl	$12, %esp
	leal	.LC27@GOTOFF(%ebx), %eax
	pushl	%eax
	call	printk@PLT
	addl	$16, %esp
	.loc 1 102 0
	subl	$12, %esp
	leal	.LC28@GOTOFF(%ebx), %eax
	pushl	%eax
	call	printk@PLT
	addl	$16, %esp
	.loc 1 103 0
	subl	$12, %esp
	leal	.LC29@GOTOFF(%ebx), %eax
	pushl	%eax
	call	printk@PLT
	addl	$16, %esp
	.loc 1 104 0
	subl	$12, %esp
	leal	.LC24@GOTOFF(%ebx), %eax
	pushl	%eax
	call	printk@PLT
	addl	$16, %esp
	.loc 1 105 0
	subl	$12, %esp
	leal	.LC30@GOTOFF(%ebx), %eax
	pushl	%eax
	call	printk@PLT
	addl	$16, %esp
	.loc 1 106 0
	subl	$12, %esp
	leal	.LC31@GOTOFF(%ebx), %eax
	pushl	%eax
	call	printk@PLT
	addl	$16, %esp
	.loc 1 107 0
	nop
	movl	-4(%ebp), %ebx
	leave
	.cfi_restore 5
	.cfi_restore 3
	.cfi_def_cfa 4, 4
	ret
	.cfi_endproc
.LFE5:
	.size	print_contributors, .-print_contributors
	.section	.text.__x86.get_pc_thunk.bx,"axG",@progbits,__x86.get_pc_thunk.bx,comdat
	.globl	__x86.get_pc_thunk.bx
	.hidden	__x86.get_pc_thunk.bx
	.type	__x86.get_pc_thunk.bx, @function
__x86.get_pc_thunk.bx:
.LFB6:
	.cfi_startproc
	movl	(%esp), %ebx
	ret
	.cfi_endproc
.LFE6:
	.text
.Letext0:
	.file 2 "./include/type.h"
	.file 3 "./include/device/console.h"
	.file 4 "./include/device/block.h"
	.file 5 "./include/list.h"
	.file 6 "./include/synch.h"
	.file 7 "./include/proc/proc.h"
	.file 8 "./include/filesys/fs.h"
	.file 9 "./include/filesys/inode.h"
	.file 10 "./include/filesys/file.h"
	.file 11 "./include/syscall.h"
	.file 12 "./include/device/ata.h"
	.section	.note.GNU-stack,"",@progbits
